; Function Attrs: nounwind uwtable
define dso_local void @ExecSortRestrPos(ptr noundef readonly captures(none) %0) local_unnamed_addr #0 {
  %2 = getelementptr inbounds nuw i8, ptr %0, i64 240
  %3 = load i8, ptr %2, align 8, !range !5, !noundef !6
  %4 = trunc nuw i8 %3 to i1
  br i1 %4, label %5, label %8

5:                                                ; preds = %1
  %6 = getelementptr inbounds nuw i8, ptr %0, i64 256
  %7 = load ptr, ptr %6, align 8
  tail call void @tuplesort_restorepos(ptr noundef %7) #4
  br label %8

8:                                                ; preds = %1, %5
  ret void
}